#include <math.h>
#include <stdio.h>
#include <stdlib.h>
#include <string.h>

void main()
{
	char ch[60000];
    int i=0;
	gets(ch);
	int length=0;
	for(i=0;i<strlen(ch);i++)
	{
		if(ch[i]==' ')
		length=0;
		else
		length=length+1;
		if(ch[i]!=' '&&ch[i+1]==' ')
		printf("%d,",length);
		if(ch[i]!=' '&&ch[i]!='\0'&&ch[i+1]=='\0')
		printf("%d",length);
	}
	
}


