; ModuleID = 'source-C-CXX/27/1228.c'
source_filename = "source-C-CXX/27/1228.c"
target datalayout = "e-m:e-p270:32:32-p271:32:32-p272:64:64-i64:64-f80:128-n8:16:32:64-S128"
target triple = "x86_64-pc-linux-gnu"

@.str = private unnamed_addr constant [4 x i8] c"%d,\00", align 1
@.str.1 = private unnamed_addr constant [3 x i8] c"%d\00", align 1

; Function Attrs: nounwind sspstrong uwtable
define dso_local void @main() local_unnamed_addr #0 {
  %1 = alloca [60000 x i8], align 16
  %2 = getelementptr inbounds [60000 x i8], [60000 x i8]* %1, i64 0, i64 0
  call void @llvm.lifetime.start.p0i8(i64 60000, i8* nonnull %2) #5
  %3 = call i32 (i8*, ...) bitcast (i32 (...)* @gets to i32 (i8*, ...)*)(i8* nonnull %2) #5
  %4 = load i8, i8* %2, align 16
  %5 = icmp eq i8 %4, 0
  br i1 %5, label %35, label %6

6:                                                ; preds = %0, %32
  %7 = phi i8 [ %34, %32 ], [ %4, %0 ]
  %8 = phi i64 [ %14, %32 ], [ 0, %0 ]
  %9 = phi i32 [ %13, %32 ], [ 0, %0 ]
  %10 = getelementptr inbounds [60000 x i8], [60000 x i8]* %1, i64 0, i64 %8
  %11 = icmp eq i8 %7, 32
  %12 = add nsw i32 %9, 1
  %13 = select i1 %11, i32 0, i32 %12
  %14 = add nuw i64 %8, 1
  br i1 %11, label %29, label %15

15:                                               ; preds = %6
  %16 = getelementptr inbounds [60000 x i8], [60000 x i8]* %1, i64 0, i64 %14
  %17 = load i8, i8* %16, align 1, !tbaa !5
  %18 = icmp eq i8 %17, 32
  br i1 %18, label %19, label %22

19:                                               ; preds = %15
  %20 = call i32 (i8*, ...) @printf(i8* nonnull dereferenceable(1) getelementptr inbounds ([4 x i8], [4 x i8]* @.str, i64 0, i64 0), i32 %13)
  %21 = load i8, i8* %10, align 1, !tbaa !5
  br label %22

22:                                               ; preds = %19, %15
  %23 = phi i8 [ %21, %19 ], [ %7, %15 ]
  switch i8 %23, label %24 [
    i8 32, label %29
    i8 0, label %29
  ]

24:                                               ; preds = %22
  %25 = load i8, i8* %16, align 1, !tbaa !5
  %26 = icmp eq i8 %25, 0
  br i1 %26, label %27, label %29

27:                                               ; preds = %24
  %28 = call i32 (i8*, ...) @printf(i8* nonnull dereferenceable(1) getelementptr inbounds ([3 x i8], [3 x i8]* @.str.1, i64 0, i64 0), i32 %13)
  br label %29

29:                                               ; preds = %6, %22, %22, %24, %27
  %30 = call i64 @strlen(i8* noundef nonnull %2) #6
  %31 = icmp ugt i64 %30, %14
  br i1 %31, label %32, label %35, !llvm.loop !8

32:                                               ; preds = %29
  %33 = getelementptr inbounds [60000 x i8], [60000 x i8]* %1, i64 0, i64 %14
  %34 = load i8, i8* %33, align 1, !tbaa !5
  br label %6

35:                                               ; preds = %29, %0
  call void @llvm.lifetime.end.p0i8(i64 60000, i8* nonnull %2) #5
  ret void
}

; Function Attrs: argmemonly mustprogress nofree nosync nounwind willreturn
declare void @llvm.lifetime.start.p0i8(i64 immarg, i8* nocapture) #1

declare i32 @gets(...) local_unnamed_addr #2

; Function Attrs: argmemonly mustprogress nofree nounwind readonly willreturn
declare i64 @strlen(i8* nocapture) local_unnamed_addr #3

; Function Attrs: nofree nounwind
declare noundef i32 @printf(i8* nocapture noundef readonly, ...) local_unnamed_addr #4

; Function Attrs: argmemonly mustprogress nofree nosync nounwind willreturn
declare void @llvm.lifetime.end.p0i8(i64 immarg, i8* nocapture) #1


!llvm.module.flags = !{!0, !1, !2, !3}
!llvm.ident = !{!4}

!0 = !{i32 1, !"wchar_size", i32 4}
!1 = !{i32 7, !"PIC Level", i32 2}
!2 = !{i32 7, !"PIE Level", i32 2}
!3 = !{i32 7, !"uwtable", i32 1}
!4 = !{!"clang version 13.0.0"}
!5 = !{!6, !6, i64 0}
!6 = !{!"omnipotent char", !7, i64 0}
!7 = !{!"Simple C/C++ TBAA"}
!8 = distinct !{!8, !9}
!9 = !{!"llvm.loop.mustprogress"}
